; Function Attrs: mustprogress nounwind uwtable
define void @_ZN24json11_internal_lightgbm4JsonC2Ev(ptr nocapture noundef nonnull writeonly align 8 dereferenceable(16) %0) unnamed_addr #2 align 2 personality ptr @__gxx_personality_v0 {
  %2 = load atomic i8, ptr @_ZGVZN24json11_internal_lightgbmL7staticsEvE1s acquire, align 8
  %3 = icmp eq i8 %2, 0
  br i1 %3, label %4, label %_ZN24json11_internal_lightgbmL7staticsEv.exit, !prof !5

4:                                                ; preds = %1
  %5 = tail call i32 @__cxa_guard_acquire(ptr nonnull @_ZGVZN24json11_internal_lightgbmL7staticsEvE1s) #22
  %.not.i = icmp eq i32 %5, 0
  br i1 %.not.i, label %_ZN24json11_internal_lightgbmL7staticsEv.exit, label %6

6:                                                ; preds = %4
  invoke void @_ZN24json11_internal_lightgbm7StaticsC2Ev(ptr noundef nonnull align 8 dereferenceable(152) @_ZZN24json11_internal_lightgbmL7staticsEvE1s)
          to label %7 unwind label %.body

7:                                                ; preds = %6
  %8 = tail call i32 @__cxa_atexit(ptr nonnull @_ZN24json11_internal_lightgbm7StaticsD2Ev, ptr nonnull @_ZZN24json11_internal_lightgbmL7staticsEvE1s, ptr nonnull @__dso_handle) #22
  tail call void @__cxa_guard_release(ptr nonnull @_ZGVZN24json11_internal_lightgbmL7staticsEvE1s) #22
  br label %_ZN24json11_internal_lightgbmL7staticsEv.exit

.body:                                            ; preds = %6
  %9 = landingpad { ptr, i32 }
          catch ptr null
  tail call void @__cxa_guard_abort(ptr nonnull @_ZGVZN24json11_internal_lightgbmL7staticsEvE1s) #22
  %10 = extractvalue { ptr, i32 } %9, 0
  tail call void @__clang_call_terminate(ptr %10) #23
  unreachable

_ZN24json11_internal_lightgbmL7staticsEv.exit:    ; preds = %7, %4, %1
  %11 = load ptr, ptr @_ZZN24json11_internal_lightgbmL7staticsEvE1s, align 8
  store ptr %11, ptr %0, align 8
  %12 = getelementptr inbounds i8, ptr %0, i64 8
  %13 = load ptr, ptr getelementptr inbounds (i8, ptr @_ZZN24json11_internal_lightgbmL7staticsEvE1s, i64 8), align 8
  store ptr %13, ptr %12, align 8
  %.not.i.i.i = icmp eq ptr %13, null
  br i1 %.not.i.i.i, label %_ZNSt10shared_ptrIN24json11_internal_lightgbm9JsonValueEEC2ERKS2_.exit, label %14

14:                                               ; preds = %_ZN24json11_internal_lightgbmL7staticsEv.exit
  %15 = getelementptr inbounds i8, ptr %13, i64 8
  %16 = load i8, ptr @__libc_single_threaded, align 1
  %.not.i.i.i.i = icmp eq i8 %16, 0
  br i1 %.not.i.i.i.i, label %20, label %17

17:                                               ; preds = %14
  %18 = load i32, ptr %15, align 4
  %19 = add nsw i32 %18, 1
  store i32 %19, ptr %15, align 4
  br label %_ZNSt10shared_ptrIN24json11_internal_lightgbm9JsonValueEEC2ERKS2_.exit

20:                                               ; preds = %14
  %21 = atomicrmw volatile add ptr %15, i32 1 acq_rel, align 4
  br label %_ZNSt10shared_ptrIN24json11_internal_lightgbm9JsonValueEEC2ERKS2_.exit

_ZNSt10shared_ptrIN24json11_internal_lightgbm9JsonValueEEC2ERKS2_.exit: ; preds = %_ZN24json11_internal_lightgbmL7staticsEv.exit, %17, %20
  ret void
}